target datalayout = "e-m:e-p270:32:32-p271:32:32-p272:64:64-i64:64-i128:128-f80:128-n8:16:32:64-S128"
target triple = "x86_64-pc-linux-gnu"

%struct.grpc_slice = type { ptr, %"union.grpc_slice::grpc_slice_data" }
%"union.grpc_slice::grpc_slice_data" = type { %"struct.grpc_slice::grpc_slice_data::grpc_slice_refcounted", [8 x i8] }
%"struct.grpc_slice::grpc_slice_data::grpc_slice_refcounted" = type { i64, ptr }
%struct.grpc_slice_refcount = type { %"struct.std::atomic", ptr }
%"struct.std::atomic" = type { %"struct.std::__atomic_base" }
%"struct.std::__atomic_base" = type { i64 }
%"class.grpc_core::NewWithLenSliceRefcount" = type { %struct.grpc_slice_refcount, ptr, i64, ptr }

; Function Attrs: mustprogress nounwind uwtable
define linkonce_odr void @_ZNSt13__atomic_baseImEC2Em(ptr noundef nonnull align 8 dereferenceable(8) %0, i64 noundef %1) unnamed_addr #7 comdat align 2 {
  %3 = alloca ptr, align 8
  %4 = alloca i64, align 8
  store ptr %0, ptr %3, align 8, !tbaa !61
  store i64 %1, ptr %4, align 8, !tbaa !12
  %5 = load ptr, ptr %3, align 8
  %6 = getelementptr inbounds nuw %"struct.std::__atomic_base", ptr %5, i32 0, i32 0
  %7 = load i64, ptr %4, align 8, !tbaa !12
  store i64 %7, ptr %6, align 8, !tbaa !63
  ret void
}

; Function Attrs: mustprogress nounwind uwtable
define linkonce_odr void @_ZNSt6atomicImEC2Em(ptr noundef nonnull align 8 dereferenceable(8) %0, i64 noundef %1) unnamed_addr #7 comdat align 2 {
  %3 = alloca ptr, align 8
  %4 = alloca i64, align 8
  store ptr %0, ptr %3, align 8, !tbaa !59
  store i64 %1, ptr %4, align 8, !tbaa !12
  %5 = load ptr, ptr %3, align 8
  %6 = load i64, ptr %4, align 8, !tbaa !12
  call void @_ZNSt13__atomic_baseImEC2Em(ptr noundef nonnull align 8 dereferenceable(8) %5, i64 noundef %6) #3
  ret void
}

; Function Attrs: mustprogress nounwind uwtable
define linkonce_odr void @_ZN19grpc_slice_refcountC2EPFvPS_E(ptr noundef nonnull align 8 dereferenceable(16) %0, ptr noundef %1) unnamed_addr #7 comdat align 2 {
  %3 = alloca ptr, align 8
  %4 = alloca ptr, align 8
  store ptr %0, ptr %3, align 8, !tbaa !18
  store ptr %1, ptr %4, align 8, !tbaa !14
  %5 = load ptr, ptr %3, align 8
  %6 = getelementptr inbounds nuw %struct.grpc_slice_refcount, ptr %5, i32 0, i32 0
  call void @_ZNSt6atomicImEC2Em(ptr noundef nonnull align 8 dereferenceable(8) %6, i64 noundef 1) #3
  %7 = getelementptr inbounds nuw %struct.grpc_slice_refcount, ptr %5, i32 0, i32 1
  %8 = load ptr, ptr %4, align 8, !tbaa !14
  store ptr %8, ptr %7, align 8, !tbaa !47
  ret void
}

; Function Attrs: mustprogress nounwind uwtable
define linkonce_odr void @_ZN9grpc_core23NewWithLenSliceRefcountC2EPFvPvmES1_m(ptr noundef nonnull align 8 dereferenceable(40) %0, ptr noundef %1, ptr noundef %2, i64 noundef %3) unnamed_addr #7 comdat align 2 {
  %5 = alloca ptr, align 8
  %6 = alloca ptr, align 8
  %7 = alloca ptr, align 8
  %8 = alloca i64, align 8
  store ptr %0, ptr %5, align 8, !tbaa !27
  store ptr %1, ptr %6, align 8, !tbaa !14
  store ptr %2, ptr %7, align 8, !tbaa !14
  store i64 %3, ptr %8, align 8, !tbaa !12
  %9 = load ptr, ptr %5, align 8
  call void @_ZN19grpc_slice_refcountC2EPFvPS_E(ptr noundef nonnull align 8 dereferenceable(16) %9, ptr noundef @_ZN9grpc_core23NewWithLenSliceRefcount7DestroyEP19grpc_slice_refcount)
  %10 = getelementptr inbounds nuw %"class.grpc_core::NewWithLenSliceRefcount", ptr %9, i32 0, i32 1
  %11 = load ptr, ptr %7, align 8, !tbaa !14
  store ptr %11, ptr %10, align 8, !tbaa !29
  %12 = getelementptr inbounds nuw %"class.grpc_core::NewWithLenSliceRefcount", ptr %9, i32 0, i32 2
  %13 = load i64, ptr %8, align 8, !tbaa !12
  store i64 %13, ptr %12, align 8, !tbaa !31
  %14 = getelementptr inbounds nuw %"class.grpc_core::NewWithLenSliceRefcount", ptr %9, i32 0, i32 3
  %15 = load ptr, ptr %6, align 8, !tbaa !14
  store ptr %15, ptr %14, align 8, !tbaa !32
  ret void
}

; Function Attrs: mustprogress uwtable
define void @grpc_slice_new_with_len(ptr dead_on_unwind noalias writable sret(%struct.grpc_slice) align 8 %0, ptr noundef %1, i64 noundef %2, ptr noundef %3) #4 personality ptr @__gxx_personality_v0 {
  %5 = alloca ptr, align 8
  %6 = alloca i64, align 8
  %7 = alloca ptr, align 8
  %8 = alloca ptr, align 8
  %9 = alloca i32, align 4
  store ptr %1, ptr %5, align 8, !tbaa !14
  store i64 %2, ptr %6, align 8, !tbaa !12
  store ptr %3, ptr %7, align 8, !tbaa !14
  %10 = call noalias noundef nonnull ptr @_Znwm(i64 noundef 40) #20
  %11 = load ptr, ptr %7, align 8, !tbaa !14
  %12 = load ptr, ptr %5, align 8, !tbaa !14
  %13 = load i64, ptr %6, align 8, !tbaa !12
  invoke void @_ZN9grpc_core23NewWithLenSliceRefcountC2EPFvPvmES1_m(ptr noundef nonnull align 8 dereferenceable(40) %10, ptr noundef %11, ptr noundef %12, i64 noundef %13)
          to label %14 unwind label %22

14:                                               ; preds = %4
  %15 = getelementptr inbounds nuw %struct.grpc_slice, ptr %0, i32 0, i32 0
  store ptr %10, ptr %15, align 8, !tbaa !3
  %16 = load ptr, ptr %5, align 8, !tbaa !14
  %17 = getelementptr inbounds nuw %struct.grpc_slice, ptr %0, i32 0, i32 1
  %18 = getelementptr inbounds nuw %"struct.grpc_slice::grpc_slice_data::grpc_slice_refcounted", ptr %17, i32 0, i32 1
  store ptr %16, ptr %18, align 8, !tbaa !9
  %19 = load i64, ptr %6, align 8, !tbaa !12
  %20 = getelementptr inbounds nuw %struct.grpc_slice, ptr %0, i32 0, i32 1
  %21 = getelementptr inbounds nuw %"struct.grpc_slice::grpc_slice_data::grpc_slice_refcounted", ptr %20, i32 0, i32 0
  store i64 %19, ptr %21, align 8, !tbaa !9
  ret void

22:                                               ; preds = %4
  %23 = landingpad { ptr, i32 }
          cleanup
  %24 = extractvalue { ptr, i32 } %23, 0
  store ptr %24, ptr %8, align 8
  %25 = extractvalue { ptr, i32 } %23, 1
  store i32 %25, ptr %9, align 4
  call void @_ZdlPvm(ptr noundef %10, i64 noundef 40) #21
  br label %26

26:                                               ; preds = %22
  %27 = load ptr, ptr %8, align 8
  %28 = load i32, ptr %9, align 4
  %29 = insertvalue { ptr, i32 } poison, ptr %27, 0
  %30 = insertvalue { ptr, i32 } %29, i32 %28, 1
  resume { ptr, i32 } %30
}