; Function Attrs: mustprogress uwtable
define void @grpc_slice_new_with_len(ptr dead_on_unwind noalias writable writeonly sret(%struct.grpc_slice) align 8 captures(none) initializes((0, 24)) %0, ptr noundef %1, i64 noundef %2, ptr noundef %3) local_unnamed_addr #3 personality ptr @__gxx_personality_v0 {
  %5 = tail call noalias noundef nonnull dereferenceable(40) ptr @_Znwm(i64 noundef 40) #28
  store i64 1, ptr %5, align 8, !tbaa !20
  %6 = getelementptr inbounds nuw i8, ptr %5, i64 8
  store ptr @_ZN9grpc_core23NewWithLenSliceRefcount7DestroyEP19grpc_slice_refcount, ptr %6, align 8, !tbaa !23
  %7 = getelementptr inbounds nuw i8, ptr %5, i64 16
  store ptr %1, ptr %7, align 8, !tbaa !39
  %8 = getelementptr inbounds nuw i8, ptr %5, i64 24
  store i64 %2, ptr %8, align 8, !tbaa !41
  %9 = getelementptr inbounds nuw i8, ptr %5, i64 32
  store ptr %3, ptr %9, align 8, !tbaa !42
  store ptr %5, ptr %0, align 8, !tbaa !3
  %10 = getelementptr inbounds nuw i8, ptr %0, i64 8
  %11 = getelementptr inbounds nuw i8, ptr %0, i64 16
  store ptr %1, ptr %11, align 8, !tbaa !9
  store i64 %2, ptr %10, align 8, !tbaa !9
  ret void
}